; ModuleID = '6/3500.c'
source_filename = "6/3500.c"
target datalayout = "e-m:e-p270:32:32-p271:32:32-p272:64:64-i64:64-f80:128-n8:16:32:64-S128"
target triple = "x86_64-pc-linux-gnu"

@.str = private unnamed_addr constant [3 x i8] c"%d\00", align 1
@.str.1 = private unnamed_addr constant [6 x i8] c"%d %d\00", align 1
@.str.2 = private unnamed_addr constant [4 x i8] c"%d\0A\00", align 1

; Function Attrs: noinline nounwind uwtable
define dso_local i32 @main() #0 {
  %1 = alloca i32, align 4
  %2 = alloca i32, align 4
  %3 = alloca i32, align 4
  %4 = alloca i32, align 4
  %5 = alloca i32, align 4
  %6 = alloca i32, align 4
  %7 = alloca i32, align 4
  %8 = alloca [100 x [100 x i32]], align 16
  %9 = alloca i32, align 4
  store i32 0, i32* %1, align 4
  %10 = call i32 (i8*, ...) @__isoc99_scanf(i8* getelementptr inbounds ([3 x i8], [3 x i8]* @.str, i64 0, i64 0), i32* %2)
  store i32 0, i32* %5, align 4
  br label %11

11:                                               ; preds = %128, %0
  %12 = load i32, i32* %5, align 4
  %13 = load i32, i32* %2, align 4
  %14 = icmp slt i32 %12, %13
  br i1 %14, label %15, label %131

15:                                               ; preds = %11
  %16 = call i32 (i8*, ...) @__isoc99_scanf(i8* getelementptr inbounds ([6 x i8], [6 x i8]* @.str.1, i64 0, i64 0), i32* %3, i32* %4)
  store i32 0, i32* %9, align 4
  store i32 1, i32* %6, align 4
  br label %17

17:                                               ; preds = %38, %15
  %18 = load i32, i32* %6, align 4
  %19 = load i32, i32* %3, align 4
  %20 = icmp sle i32 %18, %19
  br i1 %20, label %21, label %41

21:                                               ; preds = %17
  store i32 1, i32* %7, align 4
  br label %22

22:                                               ; preds = %34, %21
  %23 = load i32, i32* %7, align 4
  %24 = load i32, i32* %4, align 4
  %25 = icmp sle i32 %23, %24
  br i1 %25, label %26, label %37

26:                                               ; preds = %22
  %27 = load i32, i32* %6, align 4
  %28 = sext i32 %27 to i64
  %29 = getelementptr inbounds [100 x [100 x i32]], [100 x [100 x i32]]* %8, i64 0, i64 %28
  %30 = load i32, i32* %7, align 4
  %31 = sext i32 %30 to i64
  %32 = getelementptr inbounds [100 x i32], [100 x i32]* %29, i64 0, i64 %31
  %33 = call i32 (i8*, ...) @__isoc99_scanf(i8* getelementptr inbounds ([3 x i8], [3 x i8]* @.str, i64 0, i64 0), i32* %32)
  br label %34

34:                                               ; preds = %26
  %35 = load i32, i32* %7, align 4
  %36 = add nsw i32 %35, 1
  store i32 %36, i32* %7, align 4
  br label %22

37:                                               ; preds = %22
  br label %38

38:                                               ; preds = %37
  %39 = load i32, i32* %6, align 4
  %40 = add nsw i32 %39, 1
  store i32 %40, i32* %6, align 4
  br label %17

41:                                               ; preds = %17
  %42 = load i32, i32* %3, align 4
  %43 = icmp eq i32 %42, 1
  br i1 %43, label %44, label %52

44:                                               ; preds = %41
  %45 = load i32, i32* %4, align 4
  %46 = icmp eq i32 %45, 1
  br i1 %46, label %47, label %52

47:                                               ; preds = %44
  %48 = getelementptr inbounds [100 x [100 x i32]], [100 x [100 x i32]]* %8, i64 0, i64 1
  %49 = getelementptr inbounds [100 x i32], [100 x i32]* %48, i64 0, i64 1
  %50 = load i32, i32* %49, align 4
  %51 = call i32 (i8*, ...) @printf(i8* getelementptr inbounds ([4 x i8], [4 x i8]* @.str.2, i64 0, i64 0), i32 %50)
  br label %131

52:                                               ; preds = %44, %41
  store i32 1, i32* %7, align 4
  br label %53

53:                                               ; preds = %73, %52
  %54 = load i32, i32* %7, align 4
  %55 = load i32, i32* %4, align 4
  %56 = icmp sle i32 %54, %55
  br i1 %56, label %57, label %76

57:                                               ; preds = %53
  %58 = getelementptr inbounds [100 x [100 x i32]], [100 x [100 x i32]]* %8, i64 0, i64 1
  %59 = load i32, i32* %7, align 4
  %60 = sext i32 %59 to i64
  %61 = getelementptr inbounds [100 x i32], [100 x i32]* %58, i64 0, i64 %60
  %62 = load i32, i32* %61, align 4
  %63 = load i32, i32* %3, align 4
  %64 = sext i32 %63 to i64
  %65 = getelementptr inbounds [100 x [100 x i32]], [100 x [100 x i32]]* %8, i64 0, i64 %64
  %66 = load i32, i32* %7, align 4
  %67 = sext i32 %66 to i64
  %68 = getelementptr inbounds [100 x i32], [100 x i32]* %65, i64 0, i64 %67
  %69 = load i32, i32* %68, align 4
  %70 = add nsw i32 %62, %69
  %71 = load i32, i32* %9, align 4
  %72 = add nsw i32 %71, %70
  store i32 %72, i32* %9, align 4
  br label %73

73:                                               ; preds = %57
  %74 = load i32, i32* %7, align 4
  %75 = add nsw i32 %74, 1
  store i32 %75, i32* %7, align 4
  br label %53

76:                                               ; preds = %53
  store i32 1, i32* %6, align 4
  br label %77

77:                                               ; preds = %97, %76
  %78 = load i32, i32* %6, align 4
  %79 = load i32, i32* %3, align 4
  %80 = icmp sle i32 %78, %79
  br i1 %80, label %81, label %100

81:                                               ; preds = %77
  %82 = load i32, i32* %6, align 4
  %83 = sext i32 %82 to i64
  %84 = getelementptr inbounds [100 x [100 x i32]], [100 x [100 x i32]]* %8, i64 0, i64 %83
  %85 = getelementptr inbounds [100 x i32], [100 x i32]* %84, i64 0, i64 1
  %86 = load i32, i32* %85, align 4
  %87 = load i32, i32* %6, align 4
  %88 = sext i32 %87 to i64
  %89 = getelementptr inbounds [100 x [100 x i32]], [100 x [100 x i32]]* %8, i64 0, i64 %88
  %90 = load i32, i32* %4, align 4
  %91 = sext i32 %90 to i64
  %92 = getelementptr inbounds [100 x i32], [100 x i32]* %89, i64 0, i64 %91
  %93 = load i32, i32* %92, align 4
  %94 = add nsw i32 %86, %93
  %95 = load i32, i32* %9, align 4
  %96 = add nsw i32 %95, %94
  store i32 %96, i32* %9, align 4
  br label %97

97:                                               ; preds = %81
  %98 = load i32, i32* %6, align 4
  %99 = add nsw i32 %98, 1
  store i32 %99, i32* %6, align 4
  br label %77

100:                                              ; preds = %77
  %101 = getelementptr inbounds [100 x [100 x i32]], [100 x [100 x i32]]* %8, i64 0, i64 1
  %102 = getelementptr inbounds [100 x i32], [100 x i32]* %101, i64 0, i64 1
  %103 = load i32, i32* %102, align 4
  %104 = getelementptr inbounds [100 x [100 x i32]], [100 x [100 x i32]]* %8, i64 0, i64 1
  %105 = load i32, i32* %4, align 4
  %106 = sext i32 %105 to i64
  %107 = getelementptr inbounds [100 x i32], [100 x i32]* %104, i64 0, i64 %106
  %108 = load i32, i32* %107, align 4
  %109 = add nsw i32 %103, %108
  %110 = load i32, i32* %3, align 4
  %111 = sext i32 %110 to i64
  %112 = getelementptr inbounds [100 x [100 x i32]], [100 x [100 x i32]]* %8, i64 0, i64 %111
  %113 = getelementptr inbounds [100 x i32], [100 x i32]* %112, i64 0, i64 1
  %114 = load i32, i32* %113, align 4
  %115 = add nsw i32 %109, %114
  %116 = load i32, i32* %3, align 4
  %117 = sext i32 %116 to i64
  %118 = getelementptr inbounds [100 x [100 x i32]], [100 x [100 x i32]]* %8, i64 0, i64 %117
  %119 = load i32, i32* %4, align 4
  %120 = sext i32 %119 to i64
  %121 = getelementptr inbounds [100 x i32], [100 x i32]* %118, i64 0, i64 %120
  %122 = load i32, i32* %121, align 4
  %123 = add nsw i32 %115, %122
  %124 = load i32, i32* %9, align 4
  %125 = sub nsw i32 %124, %123
  store i32 %125, i32* %9, align 4
  %126 = load i32, i32* %9, align 4
  %127 = call i32 (i8*, ...) @printf(i8* getelementptr inbounds ([4 x i8], [4 x i8]* @.str.2, i64 0, i64 0), i32 %126)
  br label %128

128:                                              ; preds = %100
  %129 = load i32, i32* %5, align 4
  %130 = add nsw i32 %129, 1
  store i32 %130, i32* %5, align 4
  br label %11

131:                                              ; preds = %47, %11
  ret i32 0
}

declare dso_local i32 @__isoc99_scanf(i8*, ...) #1

declare dso_local i32 @printf(i8*, ...) #1


!llvm.module.flags = !{!0}
!llvm.ident = !{!1}

!0 = !{i32 1, !"wchar_size", i32 4}
!1 = !{!"clang version 10.0.0-4ubuntu1 "}
